target datalayout = "e-m:e-p270:32:32-p271:32:32-p272:64:64-i64:64-i128:128-f80:128-n8:16:32:64-S128"
target triple = "x86_64-pc-linux-gnu"

%struct._FUserData = type { ptr, ptr, ptr, ptr, ptr, ptr, ptr, ptr, ptr }

; Function Attrs: nounwind uwtable
define i32 @ipsolve_(ptr noundef %0, ptr noundef %1, ptr noundef %2, ptr noundef %3, ptr noundef %4, ptr noundef %5, ptr noundef %6, ptr noundef %7, ptr noundef %8) #0 {
  %10 = alloca ptr, align 8
  %11 = alloca ptr, align 8
  %12 = alloca ptr, align 8
  %13 = alloca ptr, align 8
  %14 = alloca ptr, align 8
  %15 = alloca ptr, align 8
  %16 = alloca ptr, align 8
  %17 = alloca ptr, align 8
  %18 = alloca ptr, align 8
  %19 = alloca ptr, align 8
  %20 = alloca ptr, align 8
  store ptr %0, ptr %10, align 8, !tbaa !32
  store ptr %1, ptr %11, align 8, !tbaa !8
  store ptr %2, ptr %12, align 8, !tbaa !8
  store ptr %3, ptr %13, align 8, !tbaa !8
  store ptr %4, ptr %14, align 8, !tbaa !8
  store ptr %5, ptr %15, align 8, !tbaa !8
  store ptr %6, ptr %16, align 8, !tbaa !8
  store ptr %7, ptr %17, align 8, !tbaa !3
  store ptr %8, ptr %18, align 8, !tbaa !8
  call void @llvm.lifetime.start.p0(i64 8, ptr %19) #6
  %21 = load ptr, ptr %10, align 8, !tbaa !32
  %22 = load ptr, ptr %21, align 8, !tbaa !10
  store ptr %22, ptr %19, align 8, !tbaa !13
  call void @llvm.lifetime.start.p0(i64 8, ptr %20) #6
  %23 = load ptr, ptr %17, align 8, !tbaa !3
  %24 = load ptr, ptr %19, align 8, !tbaa !13
  %25 = getelementptr inbounds nuw %struct._FUserData, ptr %24, i32 0, i32 0
  store ptr %23, ptr %25, align 8, !tbaa !28
  %26 = load ptr, ptr %18, align 8, !tbaa !8
  %27 = load ptr, ptr %19, align 8, !tbaa !13
  %28 = getelementptr inbounds nuw %struct._FUserData, ptr %27, i32 0, i32 1
  store ptr %26, ptr %28, align 8, !tbaa !29
  %29 = load ptr, ptr %19, align 8, !tbaa !13
  store ptr %29, ptr %20, align 8, !tbaa !10
  %30 = load ptr, ptr %19, align 8, !tbaa !13
  %31 = getelementptr inbounds nuw %struct._FUserData, ptr %30, i32 0, i32 8
  %32 = load ptr, ptr %31, align 8, !tbaa !15
  %33 = load ptr, ptr %11, align 8, !tbaa !8
  %34 = load ptr, ptr %12, align 8, !tbaa !8
  %35 = load ptr, ptr %13, align 8, !tbaa !8
  %36 = load ptr, ptr %14, align 8, !tbaa !8
  %37 = load ptr, ptr %15, align 8, !tbaa !8
  %38 = load ptr, ptr %16, align 8, !tbaa !8
  %39 = load ptr, ptr %20, align 8, !tbaa !10
  %40 = call i32 @IpoptSolve(ptr noundef %32, ptr noundef %33, ptr noundef %34, ptr noundef %35, ptr noundef %36, ptr noundef %37, ptr noundef %38, ptr noundef %39)
  call void @llvm.lifetime.end.p0(i64 8, ptr %20) #6
  call void @llvm.lifetime.end.p0(i64 8, ptr %19) #6
  ret i32 %40
}