; Function Attrs: nounwind uwtable
define i32 @ipsolve_(ptr noundef readonly captures(none) %0, ptr noundef %1, ptr noundef %2, ptr noundef %3, ptr noundef %4, ptr noundef %5, ptr noundef %6, ptr noundef %7, ptr noundef %8) local_unnamed_addr #0 {
  %10 = load ptr, ptr %0, align 8, !tbaa !23
  store ptr %7, ptr %10, align 8, !tbaa !19
  %11 = getelementptr inbounds nuw i8, ptr %10, i64 8
  store ptr %8, ptr %11, align 8, !tbaa !20
  %12 = getelementptr inbounds nuw i8, ptr %10, i64 64
  %13 = load ptr, ptr %12, align 8, !tbaa !7
  %14 = tail call i32 @IpoptSolve(ptr noundef %13, ptr noundef %1, ptr noundef %2, ptr noundef %3, ptr noundef %4, ptr noundef %5, ptr noundef %6, ptr noundef nonnull %10) #8
  ret i32 %14
}